; Function Attrs: nounwind uwtable
define internal zeroext i1 @HIDAPI_DriverPS3_RumbleJoystick(ptr noundef %0, ptr readnone captures(none) %1, i16 noundef zeroext %2, i16 noundef zeroext %3) #0 {
  %5 = alloca [49 x i8], align 16
  %6 = getelementptr inbounds nuw i8, ptr %0, i64 112
  %7 = load ptr, ptr %6, align 8
  %8 = lshr i16 %2, 8
  %9 = trunc nuw i16 %8 to i8
  %10 = getelementptr inbounds nuw i8, ptr %7, i64 24
  store i8 %9, ptr %10, align 8
  %11 = lshr i16 %3, 8
  %12 = trunc nuw i16 %11 to i8
  %13 = getelementptr inbounds nuw i8, ptr %7, i64 25
  store i8 %12, ptr %13, align 1
  %14 = load ptr, ptr %6, align 8
  %15 = getelementptr inbounds nuw i8, ptr %14, i64 25
  %16 = load i8, ptr %15, align 1
  %.not.i = icmp ne i8 %16, 0
  %17 = zext i1 %.not.i to i8
  %18 = getelementptr inbounds nuw i8, ptr %14, i64 24
  %19 = load i8, ptr %18, align 8
  %20 = getelementptr inbounds nuw i8, ptr %14, i64 20
  %21 = load i32, ptr %20, align 4
  %22 = srem i32 %21, 4
  %23 = add nsw i32 %22, 1
  %24 = shl nuw nsw i32 1, %23
  %25 = trunc i32 %24 to i8
  call void @llvm.lifetime.start.p0(i64 49, ptr nonnull %5) #10
  %26 = getelementptr inbounds nuw i8, ptr %5, i64 32
  call void @llvm.memset.p0.i64(ptr noundef nonnull align 16 dereferenceable(17) %26, i8 0, i64 17, i1 false)
  store i8 1, ptr %5, align 16
  %27 = getelementptr inbounds nuw i8, ptr %5, i64 1
  store i16 -255, ptr %27, align 1
  %.sroa.4.0..sroa_idx.i = getelementptr inbounds nuw i8, ptr %5, i64 3
  store i8 %17, ptr %.sroa.4.0..sroa_idx.i, align 1
  %.sroa.5.0..sroa_idx.i = getelementptr inbounds nuw i8, ptr %5, i64 4
  store i8 -1, ptr %.sroa.5.0..sroa_idx.i, align 4
  %.sroa.59.0..sroa_idx.i = getelementptr inbounds nuw i8, ptr %5, i64 5
  store i8 %19, ptr %.sroa.59.0..sroa_idx.i, align 1
  %.sroa.6.0..sroa_idx.i = getelementptr inbounds nuw i8, ptr %5, i64 6
  store i32 0, ptr %.sroa.6.0..sroa_idx.i, align 2
  %.sroa.612.0..sroa_idx.i = getelementptr inbounds nuw i8, ptr %5, i64 10
  store i8 %25, ptr %.sroa.612.0..sroa_idx.i, align 2
  %.sroa.7.0..sroa_idx.i = getelementptr inbounds nuw i8, ptr %5, i64 11
  call void @llvm.memcpy.p0.p0.i64(ptr noundef nonnull align 1 dereferenceable(25) %.sroa.7.0..sroa_idx.i, ptr noundef nonnull align 2 dereferenceable(25) getelementptr inbounds nuw (i8, ptr @__const.HIDAPI_DriverPS3_UpdateEffects.effects, i64 10), i64 25, i1 false)
  %28 = call i32 @SDL_HIDAPI_SendRumble(ptr noundef %0, ptr noundef nonnull %5, i32 noundef 49) #10
  %.not.i.i = icmp eq i32 %28, 49
  br i1 %.not.i.i, label %HIDAPI_DriverPS3_UpdateEffects.exit, label %29

29:                                               ; preds = %4
  %30 = call zeroext i1 (ptr, ...) @SDL_SetError_REAL(ptr noundef nonnull @.str.8) #10
  br label %HIDAPI_DriverPS3_UpdateEffects.exit

HIDAPI_DriverPS3_UpdateEffects.exit:              ; preds = %4, %29
  %.0.i.i = phi i1 [ %30, %29 ], [ true, %4 ]
  call void @llvm.lifetime.end.p0(i64 49, ptr nonnull %5) #10
  ret i1 %.0.i.i
}